; Function Attrs: mustprogress uwtable
define noundef i32 @_ZNK18OpenImageIO_v2_6_010ParamValue15get_int_indexedEii(ptr noundef nonnull align 8 dereferenceable(39) %this, i32 noundef %index, i32 noundef %defaultval) local_unnamed_addr #10 align 2 {
entry:
  %val = alloca i32, align 4
  %agg.tmp = alloca %"struct.OpenImageIO_v2_6_0::TypeDesc", align 4
  %ref.tmp2 = alloca %"struct.OpenImageIO_v2_6_0::TypeDesc", align 4
  %agg.tmp4 = alloca %"struct.OpenImageIO_v2_6_0::TypeDesc", align 4
  store i32 %defaultval, ptr %val, align 4
  %m_type.i = getelementptr inbounds i8, ptr %this, i64 8
  %0 = load i8, ptr %m_type.i, align 8, !noalias !71
  %aggregate3.i.i = getelementptr inbounds i8, ptr %this, i64 9
  %1 = load i8, ptr %aggregate3.i.i, align 1, !noalias !71
  %vecsemantics4.i.i = getelementptr inbounds i8, ptr %this, i64 10
  %2 = load i8, ptr %vecsemantics4.i.i, align 2, !noalias !71
  %arraylen5.i.i = getelementptr inbounds i8, ptr %this, i64 12
  store i8 %0, ptr %agg.tmp, align 4, !alias.scope !78
  %aggregate.i.i1 = getelementptr inbounds i8, ptr %agg.tmp, i64 1
  store i8 %1, ptr %aggregate.i.i1, align 1, !alias.scope !78
  %vecsemantics.i.i3 = getelementptr inbounds i8, ptr %agg.tmp, i64 2
  store i8 %2, ptr %vecsemantics.i.i3, align 2, !alias.scope !78
  %reserved.i.i5 = getelementptr inbounds i8, ptr %agg.tmp, i64 3
  store i8 0, ptr %reserved.i.i5, align 1, !alias.scope !78
  %arraylen.i.i6 = getelementptr inbounds i8, ptr %agg.tmp, i64 4
  store i32 0, ptr %arraylen.i.i6, align 4, !alias.scope !78
  %m_nonlocal.i = getelementptr inbounds i8, ptr %this, i64 38
  %3 = load i8, ptr %m_nonlocal.i, align 2
  %4 = and i8 %3, 1
  %tobool.not.i = icmp eq i8 %4, 0
  %m_data.i = getelementptr inbounds i8, ptr %this, i64 16
  %5 = load ptr, ptr %m_data.i, align 8
  %cond.i = select i1 %tobool.not.i, ptr %m_data.i, ptr %5
  %conv = sext i32 %index to i64
  tail call void @llvm.experimental.noalias.scope.decl(metadata !81)
  store i8 %0, ptr %ref.tmp2, align 4, !alias.scope !81
  %aggregate.i.i8 = getelementptr inbounds i8, ptr %ref.tmp2, i64 1
  store i8 %1, ptr %aggregate.i.i8, align 1, !alias.scope !81
  %vecsemantics.i.i10 = getelementptr inbounds i8, ptr %ref.tmp2, i64 2
  store i8 %2, ptr %vecsemantics.i.i10, align 2, !alias.scope !81
  %reserved.i.i12 = getelementptr inbounds i8, ptr %ref.tmp2, i64 3
  store i8 0, ptr %reserved.i.i12, align 1, !alias.scope !81
  %arraylen.i.i13 = getelementptr inbounds i8, ptr %ref.tmp2, i64 4
  %6 = load i32, ptr %arraylen5.i.i, align 4, !noalias !81
  store i32 %6, ptr %arraylen.i.i13, align 4, !alias.scope !81
  %call3 = call noundef i64 @_ZNK18OpenImageIO_v2_6_08TypeDesc8basesizeEv(ptr noundef nonnull align 4 dereferenceable(8) %ref.tmp2) #24
  %mul = mul i64 %call3, %conv
  %add.ptr = getelementptr inbounds i8, ptr %cond.i, i64 %mul
  store <4 x i8> <i8 7, i8 1, i8 0, i8 0>, ptr %agg.tmp4, align 4
  %arraylen.i = getelementptr inbounds i8, ptr %agg.tmp4, i64 4
  store i32 0, ptr %arraylen.i, align 4
  %call5 = call noundef zeroext i1 @_ZN18OpenImageIO_v2_6_012convert_typeENS_8TypeDescEPKvS0_Pvi(ptr noundef nonnull %agg.tmp, ptr noundef %add.ptr, ptr noundef nonnull %agg.tmp4, ptr noundef nonnull %val, i32 noundef 1)
  %7 = load i32, ptr %val, align 4
  ret i32 %7
}